#include <math.h>
#include <stdio.h>
#include <stdlib.h>
#include <string.h>

int main()
{
    int n,i,j,k,h,b;
    scanf("%d",&n);
    struct sb
    {
         int ID;
         int m;
         int c;
         int sum;
    }a[n];
    for(i=0;i<n;i++)
    {
         scanf("%d%d%d",&a[i].ID,&a[i].m,&a[i].c);
         a[i].sum=a[i].m+a[i].c;
    }
    for(i=0,b=0;i<n;i++)
    {
         if(a[i].sum>b)
         {
             b=a[i].sum;
             h=i;
         }
    }
    printf("%d %d\n",a[h].ID,a[h].sum);
    a[h].sum=-1;
    for(i=0,b=0;i<n;i++)
    {
         if(a[i].sum>b)
         {
             b=a[i].sum;
             h=i;
         }
    }
    printf("%d %d\n",a[h].ID,a[h].sum);
    a[h].sum=-1;
    for(i=0,b=0;i<n;i++)
    {
         if(a[i].sum>b)
         {
             b=a[i].sum;
             h=i;
         }
    }
    printf("%d %d\n",a[h].ID,a[h].sum);
    getchar();
    getchar();
}